; Function Attrs: mustprogress nofree norecurse nosync nounwind willreturn memory(read, inaccessiblemem: none) uwtable
define internal noundef zeroext i1 @_ZN12_GLOBAL__N_112Interference14lowestEndPointERKSt5tupleIJPN4llvm12LiveIntervalEmjEES7_(ptr noundef nonnull readonly align 8 captures(none) dereferenceable(24) %0, ptr noundef nonnull readonly align 8 captures(none) dereferenceable(24) %1) #17 align 2 {
  %3 = getelementptr inbounds nuw i8, ptr %0, i64 8
  %.val = load i64, ptr %3, align 8
  %4 = getelementptr inbounds nuw i8, ptr %0, i64 16
  %.val8 = load ptr, ptr %4, align 8
  %.val8.val = load ptr, ptr %.val8, align 8
  %5 = getelementptr inbounds %"struct.llvm::LiveRange::Segment", ptr %.val8.val, i64 %.val, i32 1
  %.sroa.0.0.copyload.i = load i64, ptr %5, align 8
  %6 = getelementptr inbounds nuw i8, ptr %1, i64 8
  %.val9 = load i64, ptr %6, align 8
  %7 = getelementptr inbounds nuw i8, ptr %1, i64 16
  %.val10 = load ptr, ptr %7, align 8
  %.val10.val = load ptr, ptr %.val10, align 8
  %8 = getelementptr inbounds %"struct.llvm::LiveRange::Segment", ptr %.val10.val, i64 %.val9, i32 1
  %.sroa.0.0.copyload.i11 = load i64, ptr %8, align 8
  %9 = and i64 %.sroa.0.0.copyload.i, -8
  %10 = inttoptr i64 %9 to ptr
  %11 = getelementptr inbounds nuw i8, ptr %10, i64 24
  %12 = load i32, ptr %11, align 8
  %13 = trunc i64 %.sroa.0.0.copyload.i to i32
  %14 = lshr i32 %13, 1
  %15 = and i32 %14, 3
  %16 = or i32 %12, %15
  %17 = and i64 %.sroa.0.0.copyload.i11, -8
  %18 = inttoptr i64 %17 to ptr
  %19 = getelementptr inbounds nuw i8, ptr %18, i64 24
  %20 = load i32, ptr %19, align 8
  %21 = trunc i64 %.sroa.0.0.copyload.i11 to i32
  %22 = lshr i32 %21, 1
  %23 = and i32 %22, 3
  %24 = or i32 %23, %20
  %25 = icmp ult i32 %16, %24
  br i1 %25, label %32, label %26

26:                                               ; preds = %2
  %27 = icmp ugt i32 %16, %24
  br i1 %27, label %32, label %28

28:                                               ; preds = %26
  %29 = getelementptr inbounds nuw i8, ptr %.val8, i64 112
  %.sroa.0.0.copyload.i13 = load i32, ptr %29, align 8
  %30 = getelementptr inbounds nuw i8, ptr %.val10, i64 112
  %.sroa.0.0.copyload.i14 = load i32, ptr %30, align 8
  %31 = icmp ult i32 %.sroa.0.0.copyload.i13, %.sroa.0.0.copyload.i14
  br label %32

32:                                               ; preds = %26, %2, %28
  %.0 = phi i1 [ %31, %28 ], [ true, %2 ], [ false, %26 ]
  ret i1 %.0
}